; ModuleID = 'source-C-CXX/48/1228.c'
source_filename = "source-C-CXX/48/1228.c"
target datalayout = "e-m:e-p270:32:32-p271:32:32-p272:64:64-i64:64-f80:128-n8:16:32:64-S128"
target triple = "x86_64-pc-linux-gnu"

; Function Attrs: nounwind sspstrong uwtable
define dso_local i32 @main() local_unnamed_addr #0 {
  %1 = alloca [501 x i8], align 16
  %2 = getelementptr inbounds [501 x i8], [501 x i8]* %1, i64 0, i64 0
  call void @llvm.lifetime.start.p0i8(i64 501, i8* nonnull %2) #5
  %3 = call i32 (i8*, ...) bitcast (i32 (...)* @gets to i32 (i8*, ...)*)(i8* nonnull %2) #5
  %4 = call i64 @strlen(i8* noundef nonnull %2) #6
  %5 = trunc i64 %4 to i32
  %6 = icmp sgt i32 %5, 1
  br i1 %6, label %7, label %66

7:                                                ; preds = %0
  %8 = add i64 %4, 1
  %9 = and i64 %8, 4294967295
  br label %10

10:                                               ; preds = %7, %62
  %11 = phi i32 [ %5, %7 ], [ %14, %62 ]
  %12 = phi i64 [ 2, %7 ], [ %64, %62 ]
  %13 = phi i64 [ 1, %7 ], [ %63, %62 ]
  %14 = add i32 %11, -1
  %15 = trunc i64 %13 to i32
  %16 = icmp sgt i32 %5, %15
  br i1 %16, label %17, label %62

17:                                               ; preds = %10
  %18 = zext i32 %14 to i64
  br label %19

19:                                               ; preds = %17, %57
  %20 = phi i64 [ %12, %17 ], [ %60, %57 ]
  %21 = phi i64 [ %13, %17 ], [ %59, %57 ]
  %22 = phi i64 [ 0, %17 ], [ %58, %57 ]
  %23 = add nuw nsw i64 %22, %13
  %24 = getelementptr inbounds [501 x i8], [501 x i8]* %1, i64 0, i64 %22
  %25 = load i8, i8* %24, align 1, !tbaa !5
  %26 = getelementptr inbounds [501 x i8], [501 x i8]* %1, i64 0, i64 %23
  %27 = load i8, i8* %26, align 1, !tbaa !5
  %28 = icmp eq i8 %25, %27
  br i1 %28, label %29, label %57

29:                                               ; preds = %19, %29
  %30 = phi i64 [ %33, %29 ], [ %21, %19 ]
  %31 = phi i64 [ %32, %29 ], [ %22, %19 ]
  %32 = add nuw nsw i64 %31, 1
  %33 = add nsw i64 %30, -1
  %34 = getelementptr inbounds [501 x i8], [501 x i8]* %1, i64 0, i64 %32
  %35 = load i8, i8* %34, align 1, !tbaa !5
  %36 = getelementptr inbounds [501 x i8], [501 x i8]* %1, i64 0, i64 %33
  %37 = load i8, i8* %36, align 1, !tbaa !5
  %38 = icmp eq i8 %35, %37
  %39 = icmp slt i64 %32, %33
  %40 = select i1 %38, i1 %39, i1 false
  br i1 %40, label %29, label %41, !llvm.loop !8

41:                                               ; preds = %29
  br i1 %39, label %57, label %42

42:                                               ; preds = %41
  %43 = sext i8 %25 to i32
  %44 = call i32 @putchar(i32 %43)
  %45 = add nuw nsw i64 %22, 1
  %46 = icmp eq i64 %45, %20
  br i1 %46, label %55, label %47, !llvm.loop !10

47:                                               ; preds = %42, %47
  %48 = phi i64 [ %53, %47 ], [ %45, %42 ]
  %49 = getelementptr inbounds [501 x i8], [501 x i8]* %1, i64 0, i64 %48
  %50 = load i8, i8* %49, align 1, !tbaa !5
  %51 = sext i8 %50 to i32
  %52 = call i32 @putchar(i32 %51)
  %53 = add nuw nsw i64 %48, 1
  %54 = icmp eq i64 %53, %20
  br i1 %54, label %55, label %47, !llvm.loop !10

55:                                               ; preds = %47, %42
  %56 = call i32 @putchar(i32 10)
  br label %57

57:                                               ; preds = %19, %41, %55
  %58 = add nuw nsw i64 %22, 1
  %59 = add nuw nsw i64 %21, 1
  %60 = add nuw nsw i64 %20, 1
  %61 = icmp eq i64 %58, %18
  br i1 %61, label %62, label %19, !llvm.loop !11

62:                                               ; preds = %57, %10
  %63 = add nuw nsw i64 %13, 1
  %64 = add nuw nsw i64 %12, 1
  %65 = icmp eq i64 %64, %9
  br i1 %65, label %66, label %10, !llvm.loop !12

66:                                               ; preds = %62, %0
  call void @llvm.lifetime.end.p0i8(i64 501, i8* nonnull %2) #5
  ret i32 0
}

; Function Attrs: argmemonly mustprogress nofree nosync nounwind willreturn
declare void @llvm.lifetime.start.p0i8(i64 immarg, i8* nocapture) #1

declare i32 @gets(...) local_unnamed_addr #2

; Function Attrs: argmemonly mustprogress nofree nounwind readonly willreturn
declare i64 @strlen(i8* nocapture) local_unnamed_addr #3

; Function Attrs: argmemonly mustprogress nofree nosync nounwind willreturn
declare void @llvm.lifetime.end.p0i8(i64 immarg, i8* nocapture) #1

; Function Attrs: nofree nounwind
declare noundef i32 @putchar(i32 noundef) local_unnamed_addr #4


!llvm.module.flags = !{!0, !1, !2, !3}
!llvm.ident = !{!4}

!0 = !{i32 1, !"wchar_size", i32 4}
!1 = !{i32 7, !"PIC Level", i32 2}
!2 = !{i32 7, !"PIE Level", i32 2}
!3 = !{i32 7, !"uwtable", i32 1}
!4 = !{!"clang version 13.0.0"}
!5 = !{!6, !6, i64 0}
!6 = !{!"omnipotent char", !7, i64 0}
!7 = !{!"Simple C/C++ TBAA"}
!8 = distinct !{!8, !9}
!9 = !{!"llvm.loop.mustprogress"}
!10 = distinct !{!10, !9}
!11 = distinct !{!11, !9}
!12 = distinct !{!12, !9}
